target datalayout = "e-m:e-p270:32:32-p271:32:32-p272:64:64-i64:64-i128:128-f80:128-n8:16:32:64-S128"
target triple = "x86_64-pc-linux-gnu"

%struct.ssl_st = type { i32, i16, i16, ptr, ptr, ptr, ptr, ptr, i32, i32, ptr, ptr, i32, i32, ptr, ptr, ptr, ptr, ptr, ptr, ptr, ptr, i32, i32, [32 x i8], ptr, ptr, ptr, ptr, ptr, ptr, ptr, i64, %struct.crypto_ex_data_st, ptr, i32, i32, i32, i32, i16, ptr, i32, i64, ptr, ptr, ptr, ptr, ptr, ptr, i32, i32, ptr, ptr, i8, i8, i32 }
%struct.crypto_ex_data_st = type { ptr }
%struct.ssl_protocol_method_st = type { i8, ptr, ptr, ptr, ptr, ptr, ptr, ptr, ptr, ptr, ptr, ptr, i32, ptr, ptr }
%struct.ssl_session_st = type { i32, i32, i32, i32, [48 x i8], i32, [32 x i8], i32, [32 x i8], ptr, ptr, ptr, i64, i64, i64, ptr, %struct.crypto_ex_data_st, ptr, ptr, ptr, ptr, i64, i64, ptr, i64, ptr, [32 x i8], [64 x i8], i32, i32, i8 }
%struct.cbs_st = type { ptr, i64 }

@.str = private unnamed_addr constant [117 x i8] c"generated/home/dtcxzyw/WorkSpace/Projects/compilers/llvm-opt-benchmark/bench/libquic/libquic/boringssl/ssl/s3_clnt.c\00", align 1

; Function Attrs: nounwind uwtable
define hidden i32 @ssl3_get_server_certificate(ptr noundef %0) #0 {
  %2 = alloca i32, align 4
  %3 = alloca ptr, align 8
  %4 = alloca i32, align 4
  %5 = alloca i32, align 4
  %6 = alloca i32, align 4
  %7 = alloca i64, align 8
  %8 = alloca ptr, align 8
  %9 = alloca ptr, align 8
  %10 = alloca ptr, align 8
  %11 = alloca %struct.cbs_st, align 8
  %12 = alloca %struct.cbs_st, align 8
  %13 = alloca ptr, align 8
  %14 = alloca i32, align 4
  %15 = alloca %struct.cbs_st, align 8
  %16 = alloca ptr, align 8
  store ptr %0, ptr %3, align 8, !tbaa !6
  call void @llvm.lifetime.start.p0(i64 4, ptr %4) #8
  call void @llvm.lifetime.start.p0(i64 4, ptr %5) #8
  call void @llvm.lifetime.start.p0(i64 4, ptr %6) #8
  store i32 -1, ptr %6, align 4, !tbaa !14
  call void @llvm.lifetime.start.p0(i64 8, ptr %7) #8
  call void @llvm.lifetime.start.p0(i64 8, ptr %8) #8
  store ptr null, ptr %8, align 8, !tbaa !129
  call void @llvm.lifetime.start.p0(i64 8, ptr %9) #8
  store ptr null, ptr %9, align 8, !tbaa !130
  call void @llvm.lifetime.start.p0(i64 8, ptr %10) #8
  store ptr null, ptr %10, align 8, !tbaa !131
  call void @llvm.lifetime.start.p0(i64 16, ptr %11) #8
  call void @llvm.lifetime.start.p0(i64 16, ptr %12) #8
  call void @llvm.lifetime.start.p0(i64 8, ptr %13) #8
  %17 = load ptr, ptr %3, align 8, !tbaa !6
  %18 = getelementptr inbounds nuw %struct.ssl_st, ptr %17, i32 0, i32 3
  %19 = load ptr, ptr %18, align 8, !tbaa !74
  %20 = getelementptr inbounds nuw %struct.ssl_protocol_method_st, ptr %19, i32 0, i32 5
  %21 = load ptr, ptr %20, align 8, !tbaa !109
  %22 = load ptr, ptr %3, align 8, !tbaa !6
  %23 = load ptr, ptr %3, align 8, !tbaa !6
  %24 = getelementptr inbounds nuw %struct.ssl_st, ptr %23, i32 0, i32 37
  %25 = load i32, ptr %24, align 8, !tbaa !132
  %26 = zext i32 %25 to i64
  %27 = call i64 %21(ptr noundef %22, i32 noundef 4400, i32 noundef 4401, i32 noundef 11, i64 noundef %26, i32 noundef 1, ptr noundef %5)
  store i64 %27, ptr %7, align 8, !tbaa !106
  %28 = load i32, ptr %5, align 4, !tbaa !14
  %29 = icmp ne i32 %28, 0
  br i1 %29, label %33, label %30

30:                                               ; preds = %1
  %31 = load i64, ptr %7, align 8, !tbaa !106
  %32 = trunc i64 %31 to i32
  store i32 %32, ptr %2, align 4
  store i32 1, ptr %14, align 4
  br label %132

33:                                               ; preds = %1
  %34 = load ptr, ptr %3, align 8, !tbaa !6
  %35 = getelementptr inbounds nuw %struct.ssl_st, ptr %34, i32 0, i32 11
  %36 = load ptr, ptr %35, align 8, !tbaa !110
  %37 = load i64, ptr %7, align 8, !tbaa !106
  call void @CBS_init(ptr noundef %11, ptr noundef %36, i64 noundef %37)
  %38 = call ptr @sk_new_null()
  store ptr %38, ptr %9, align 8, !tbaa !130
  %39 = load ptr, ptr %9, align 8, !tbaa !130
  %40 = icmp eq ptr %39, null
  br i1 %40, label %41, label %42

41:                                               ; preds = %33
  call void @ERR_put_error(i32 noundef 16, i32 noundef 0, i32 noundef 65, ptr noundef @.str, i32 noundef 978)
  br label %127

42:                                               ; preds = %33
  %43 = call i32 @CBS_get_u24_length_prefixed(ptr noundef %11, ptr noundef %12)
  %44 = icmp ne i32 %43, 0
  br i1 %44, label %45, label %51

45:                                               ; preds = %42
  %46 = call i64 @CBS_len(ptr noundef %12)
  %47 = icmp eq i64 %46, 0
  br i1 %47, label %51, label %48

48:                                               ; preds = %45
  %49 = call i64 @CBS_len(ptr noundef %11)
  %50 = icmp ne i64 %49, 0
  br i1 %50, label %51, label %52

51:                                               ; preds = %48, %45, %42
  store i32 50, ptr %4, align 4, !tbaa !14
  call void @ERR_put_error(i32 noundef 16, i32 noundef 0, i32 noundef 137, ptr noundef @.str, i32 noundef 986)
  br label %122

52:                                               ; preds = %48
  br label %53

53:                                               ; preds = %83, %52
  %54 = call i64 @CBS_len(ptr noundef %12)
  %55 = icmp ugt i64 %54, 0
  br i1 %55, label %56, label %84

56:                                               ; preds = %53
  call void @llvm.lifetime.start.p0(i64 16, ptr %15) #8
  %57 = call i32 @CBS_get_u24_length_prefixed(ptr noundef %12, ptr noundef %15)
  %58 = icmp ne i32 %57, 0
  br i1 %58, label %60, label %59

59:                                               ; preds = %56
  store i32 50, ptr %4, align 4, !tbaa !14
  call void @ERR_put_error(i32 noundef 16, i32 noundef 0, i32 noundef 127, ptr noundef @.str, i32 noundef 994)
  store i32 3, ptr %14, align 4
  br label %81

60:                                               ; preds = %56
  %61 = call ptr @CBS_data(ptr noundef %15)
  store ptr %61, ptr %13, align 8, !tbaa !133
  %62 = call i64 @CBS_len(ptr noundef %15)
  %63 = call ptr @d2i_X509(ptr noundef null, ptr noundef %13, i64 noundef %62)
  store ptr %63, ptr %8, align 8, !tbaa !129
  %64 = load ptr, ptr %8, align 8, !tbaa !129
  %65 = icmp eq ptr %64, null
  br i1 %65, label %66, label %67

66:                                               ; preds = %60
  store i32 42, ptr %4, align 4, !tbaa !14
  call void @ERR_put_error(i32 noundef 16, i32 noundef 0, i32 noundef 12, ptr noundef @.str, i32 noundef 1002)
  store i32 3, ptr %14, align 4
  br label %81

67:                                               ; preds = %60
  %68 = load ptr, ptr %13, align 8, !tbaa !133
  %69 = call ptr @CBS_data(ptr noundef %15)
  %70 = call i64 @CBS_len(ptr noundef %15)
  %71 = getelementptr inbounds nuw i8, ptr %69, i64 %70
  %72 = icmp ne ptr %68, %71
  br i1 %72, label %73, label %74

73:                                               ; preds = %67
  store i32 50, ptr %4, align 4, !tbaa !14
  call void @ERR_put_error(i32 noundef 16, i32 noundef 0, i32 noundef 127, ptr noundef @.str, i32 noundef 1007)
  store i32 3, ptr %14, align 4
  br label %81

74:                                               ; preds = %67
  %75 = load ptr, ptr %9, align 8, !tbaa !130
  %76 = load ptr, ptr %8, align 8, !tbaa !129
  %77 = call i64 @sk_push(ptr noundef %75, ptr noundef %76)
  %78 = icmp ne i64 %77, 0
  br i1 %78, label %80, label %79

79:                                               ; preds = %74
  call void @ERR_put_error(i32 noundef 16, i32 noundef 0, i32 noundef 65, ptr noundef @.str, i32 noundef 1011)
  store i32 2, ptr %14, align 4
  br label %81

80:                                               ; preds = %74
  store ptr null, ptr %8, align 8, !tbaa !129
  store i32 0, ptr %14, align 4
  br label %81

81:                                               ; preds = %79, %73, %66, %59, %80
  call void @llvm.lifetime.end.p0(i64 16, ptr %15) #8
  %82 = load i32, ptr %14, align 4
  switch i32 %82, label %132 [
    i32 0, label %83
    i32 3, label %122
    i32 2, label %127
  ]

83:                                               ; preds = %81
  br label %53, !llvm.loop !134

84:                                               ; preds = %53
  %85 = load ptr, ptr %9, align 8, !tbaa !130
  %86 = call ptr @sk_value(ptr noundef %85, i64 noundef 0)
  store ptr %86, ptr %16, align 8, !tbaa !129
  %87 = load ptr, ptr %3, align 8, !tbaa !6
  %88 = load ptr, ptr %16, align 8, !tbaa !129
  %89 = call i32 @ssl3_check_leaf_certificate(ptr noundef %87, ptr noundef %88)
  %90 = icmp ne i32 %89, 0
  br i1 %90, label %92, label %91

91:                                               ; preds = %84
  store i32 47, ptr %4, align 4, !tbaa !14
  br label %122

92:                                               ; preds = %84
  %93 = load ptr, ptr %3, align 8, !tbaa !6
  %94 = getelementptr inbounds nuw %struct.ssl_st, ptr %93, i32 0, i32 25
  %95 = load ptr, ptr %94, align 8, !tbaa !86
  %96 = getelementptr inbounds nuw %struct.ssl_session_st, ptr %95, i32 0, i32 11
  %97 = load ptr, ptr %96, align 8, !tbaa !136
  call void @sk_pop_free(ptr noundef %97, ptr noundef @X509_free)
  %98 = load ptr, ptr %9, align 8, !tbaa !130
  %99 = load ptr, ptr %3, align 8, !tbaa !6
  %100 = getelementptr inbounds nuw %struct.ssl_st, ptr %99, i32 0, i32 25
  %101 = load ptr, ptr %100, align 8, !tbaa !86
  %102 = getelementptr inbounds nuw %struct.ssl_session_st, ptr %101, i32 0, i32 11
  store ptr %98, ptr %102, align 8, !tbaa !136
  store ptr null, ptr %9, align 8, !tbaa !130
  %103 = load ptr, ptr %3, align 8, !tbaa !6
  %104 = getelementptr inbounds nuw %struct.ssl_st, ptr %103, i32 0, i32 25
  %105 = load ptr, ptr %104, align 8, !tbaa !86
  %106 = getelementptr inbounds nuw %struct.ssl_session_st, ptr %105, i32 0, i32 10
  %107 = load ptr, ptr %106, align 8, !tbaa !137
  call void @X509_free(ptr noundef %107)
  %108 = load ptr, ptr %16, align 8, !tbaa !129
  %109 = call ptr @X509_up_ref(ptr noundef %108)
  %110 = load ptr, ptr %3, align 8, !tbaa !6
  %111 = getelementptr inbounds nuw %struct.ssl_st, ptr %110, i32 0, i32 25
  %112 = load ptr, ptr %111, align 8, !tbaa !86
  %113 = getelementptr inbounds nuw %struct.ssl_session_st, ptr %112, i32 0, i32 10
  store ptr %109, ptr %113, align 8, !tbaa !137
  %114 = load ptr, ptr %3, align 8, !tbaa !6
  %115 = getelementptr inbounds nuw %struct.ssl_st, ptr %114, i32 0, i32 32
  %116 = load i64, ptr %115, align 8, !tbaa !138
  %117 = load ptr, ptr %3, align 8, !tbaa !6
  %118 = getelementptr inbounds nuw %struct.ssl_st, ptr %117, i32 0, i32 25
  %119 = load ptr, ptr %118, align 8, !tbaa !86
  %120 = getelementptr inbounds nuw %struct.ssl_session_st, ptr %119, i32 0, i32 12
  store i64 %116, ptr %120, align 8, !tbaa !139
  store i32 1, ptr %6, align 4, !tbaa !14
  br i1 false, label %121, label %126

121:                                              ; preds = %92
  br label %122

122:                                              ; preds = %121, %81, %91, %51
  %123 = load ptr, ptr %3, align 8, !tbaa !6
  %124 = load i32, ptr %4, align 4, !tbaa !14
  %125 = call i32 @ssl3_send_alert(ptr noundef %123, i32 noundef 2, i32 noundef %124)
  br label %126

126:                                              ; preds = %122, %92
  br label %127

127:                                              ; preds = %126, %81, %41
  %128 = load ptr, ptr %10, align 8, !tbaa !131
  call void @EVP_PKEY_free(ptr noundef %128)
  %129 = load ptr, ptr %8, align 8, !tbaa !129
  call void @X509_free(ptr noundef %129)
  %130 = load ptr, ptr %9, align 8, !tbaa !130
  call void @sk_pop_free(ptr noundef %130, ptr noundef @X509_free)
  %131 = load i32, ptr %6, align 4, !tbaa !14
  store i32 %131, ptr %2, align 4
  store i32 1, ptr %14, align 4
  br label %132

132:                                              ; preds = %127, %81, %30
  call void @llvm.lifetime.end.p0(i64 8, ptr %13) #8
  call void @llvm.lifetime.end.p0(i64 16, ptr %12) #8
  call void @llvm.lifetime.end.p0(i64 16, ptr %11) #8
  call void @llvm.lifetime.end.p0(i64 8, ptr %10) #8
  call void @llvm.lifetime.end.p0(i64 8, ptr %9) #8
  call void @llvm.lifetime.end.p0(i64 8, ptr %8) #8
  call void @llvm.lifetime.end.p0(i64 8, ptr %7) #8
  call void @llvm.lifetime.end.p0(i64 4, ptr %6) #8
  call void @llvm.lifetime.end.p0(i64 4, ptr %5) #8
  call void @llvm.lifetime.end.p0(i64 4, ptr %4) #8
  %133 = load i32, ptr %2, align 4
  ret i32 %133
}