; Function Attrs: nounwind uwtable
define hidden i32 @ssl3_get_server_certificate(ptr noundef %0) local_unnamed_addr #0 {
  %2 = alloca i32, align 4
  %3 = alloca %struct.cbs_st, align 8
  %4 = alloca %struct.cbs_st, align 8
  %5 = alloca ptr, align 8
  %6 = alloca %struct.cbs_st, align 8
  call void @llvm.lifetime.start.p0(i64 4, ptr nonnull %2) #11
  call void @llvm.lifetime.start.p0(i64 16, ptr nonnull %3) #11
  call void @llvm.lifetime.start.p0(i64 16, ptr nonnull %4) #11
  call void @llvm.lifetime.start.p0(i64 8, ptr nonnull %5) #11
  %7 = getelementptr inbounds nuw i8, ptr %0, i64 8
  %8 = load ptr, ptr %7, align 8, !tbaa !70
  %9 = getelementptr inbounds nuw i8, ptr %8, i64 40
  %10 = load ptr, ptr %9, align 8, !tbaa !71
  %11 = getelementptr inbounds nuw i8, ptr %0, i64 272
  %12 = load i32, ptr %11, align 8, !tbaa !125
  %13 = zext i32 %12 to i64
  %14 = call i64 %10(ptr noundef %0, i32 noundef 4400, i32 noundef 4401, i32 noundef 11, i64 noundef %13, i32 noundef 1, ptr noundef nonnull %2) #11
  %15 = load i32, ptr %2, align 4, !tbaa !73
  %.not = icmp eq i32 %15, 0
  br i1 %.not, label %16, label %18

16:                                               ; preds = %1
  %17 = trunc i64 %14 to i32
  br label %71

18:                                               ; preds = %1
  %19 = getelementptr inbounds nuw i8, ptr %0, i64 64
  %20 = load ptr, ptr %19, align 8, !tbaa !107
  call void @CBS_init(ptr noundef nonnull %3, ptr noundef %20, i64 noundef %14) #11
  %21 = call ptr @sk_new_null() #11
  %22 = icmp eq ptr %21, null
  br i1 %22, label %23, label %24

23:                                               ; preds = %18
  call void @ERR_put_error(i32 noundef 16, i32 noundef 0, i32 noundef 65, ptr noundef nonnull @.str, i32 noundef 978) #11
  br label %70

24:                                               ; preds = %18
  %25 = call i32 @CBS_get_u24_length_prefixed(ptr noundef nonnull %3, ptr noundef nonnull %4) #11
  %.not39 = icmp eq i32 %25, 0
  br i1 %.not39, label %32, label %26

26:                                               ; preds = %24
  %27 = call i64 @CBS_len(ptr noundef nonnull %4) #11
  %28 = icmp eq i64 %27, 0
  br i1 %28, label %32, label %29

29:                                               ; preds = %26
  %30 = call i64 @CBS_len(ptr noundef nonnull %3) #11
  %.not40 = icmp eq i64 %30, 0
  br i1 %.not40, label %.preheader, label %32

.preheader:                                       ; preds = %29
  %31 = call i64 @CBS_len(ptr noundef nonnull %4) #11
  %.not4155 = icmp eq i64 %31, 0
  br i1 %.not4155, label %._crit_edge, label %.lr.ph

32:                                               ; preds = %29, %26, %24
  call void @ERR_put_error(i32 noundef 16, i32 noundef 0, i32 noundef 137, ptr noundef nonnull @.str, i32 noundef 986) #11
  br label %68

.lr.ph:                                           ; preds = %.preheader, %49
  call void @llvm.lifetime.start.p0(i64 16, ptr nonnull %6) #11
  %33 = call i32 @CBS_get_u24_length_prefixed(ptr noundef nonnull %4, ptr noundef nonnull %6) #11
  %.not43 = icmp eq i32 %33, 0
  br i1 %.not43, label %34, label %35

34:                                               ; preds = %.lr.ph
  call void @ERR_put_error(i32 noundef 16, i32 noundef 0, i32 noundef 127, ptr noundef nonnull @.str, i32 noundef 994) #11
  br label %.thread

35:                                               ; preds = %.lr.ph
  %36 = call ptr @CBS_data(ptr noundef nonnull %6) #11
  store ptr %36, ptr %5, align 8, !tbaa !126
  %37 = call i64 @CBS_len(ptr noundef nonnull %6) #11
  %38 = call ptr @d2i_X509(ptr noundef null, ptr noundef nonnull %5, i64 noundef %37) #11
  %39 = icmp eq ptr %38, null
  br i1 %39, label %40, label %41

40:                                               ; preds = %35
  call void @ERR_put_error(i32 noundef 16, i32 noundef 0, i32 noundef 12, ptr noundef nonnull @.str, i32 noundef 1002) #11
  br label %.thread

41:                                               ; preds = %35
  %42 = load ptr, ptr %5, align 8, !tbaa !126
  %43 = call ptr @CBS_data(ptr noundef nonnull %6) #11
  %44 = call i64 @CBS_len(ptr noundef nonnull %6) #11
  %45 = getelementptr inbounds nuw i8, ptr %43, i64 %44
  %.not44 = icmp eq ptr %42, %45
  br i1 %.not44, label %47, label %46

46:                                               ; preds = %41
  call void @ERR_put_error(i32 noundef 16, i32 noundef 0, i32 noundef 127, ptr noundef nonnull @.str, i32 noundef 1007) #11
  br label %.thread

47:                                               ; preds = %41
  %48 = call i64 @sk_push(ptr noundef nonnull %21, ptr noundef nonnull %38) #11
  %.not45 = icmp eq i64 %48, 0
  br i1 %.not45, label %.thread49, label %49

.thread49:                                        ; preds = %47
  call void @ERR_put_error(i32 noundef 16, i32 noundef 0, i32 noundef 65, ptr noundef nonnull @.str, i32 noundef 1011) #11
  call void @llvm.lifetime.end.p0(i64 16, ptr nonnull %6) #11
  br label %70

.thread:                                          ; preds = %40, %46, %34
  %.3.ph = phi ptr [ null, %34 ], [ %38, %46 ], [ null, %40 ]
  %.2.ph = phi i32 [ 50, %34 ], [ 50, %46 ], [ 42, %40 ]
  call void @llvm.lifetime.end.p0(i64 16, ptr nonnull %6) #11
  br label %68

49:                                               ; preds = %47
  call void @llvm.lifetime.end.p0(i64 16, ptr nonnull %6) #11
  %50 = call i64 @CBS_len(ptr noundef nonnull %4) #11
  %.not41 = icmp eq i64 %50, 0
  br i1 %.not41, label %._crit_edge, label %.lr.ph

._crit_edge:                                      ; preds = %49, %.preheader
  %51 = call ptr @sk_value(ptr noundef nonnull %21, i64 noundef 0) #11
  %52 = call fastcc i32 @ssl3_check_leaf_certificate(ptr noundef %0, ptr noundef %51)
  %.not42 = icmp eq i32 %52, 0
  br i1 %.not42, label %68, label %53

53:                                               ; preds = %._crit_edge
  %54 = getelementptr inbounds nuw i8, ptr %0, i64 184
  %55 = load ptr, ptr %54, align 8, !tbaa !64
  %56 = getelementptr inbounds nuw i8, ptr %55, i64 152
  %57 = load ptr, ptr %56, align 8, !tbaa !65
  call void @sk_pop_free(ptr noundef %57, ptr noundef nonnull @X509_free) #11
  %58 = load ptr, ptr %54, align 8, !tbaa !64
  %59 = getelementptr inbounds nuw i8, ptr %58, i64 152
  store ptr %21, ptr %59, align 8, !tbaa !65
  %60 = getelementptr inbounds nuw i8, ptr %58, i64 144
  %61 = load ptr, ptr %60, align 8, !tbaa !127
  call void @X509_free(ptr noundef %61) #11
  %62 = call ptr @X509_up_ref(ptr noundef %51) #11
  %63 = load ptr, ptr %54, align 8, !tbaa !64
  %64 = getelementptr inbounds nuw i8, ptr %63, i64 144
  store ptr %62, ptr %64, align 8, !tbaa !127
  %65 = getelementptr inbounds nuw i8, ptr %0, i64 240
  %66 = load i64, ptr %65, align 8, !tbaa !69
  %67 = getelementptr inbounds nuw i8, ptr %63, i64 160
  store i64 %66, ptr %67, align 8, !tbaa !128
  br label %70

68:                                               ; preds = %.thread, %._crit_edge, %32
  %.132 = phi ptr [ null, %32 ], [ null, %._crit_edge ], [ %.3.ph, %.thread ]
  %.029 = phi i32 [ 50, %32 ], [ 47, %._crit_edge ], [ %.2.ph, %.thread ]
  %69 = call i32 @ssl3_send_alert(ptr noundef %0, i32 noundef 2, i32 noundef %.029) #11
  br label %70

70:                                               ; preds = %.thread49, %68, %53, %23
  %.034 = phi i32 [ -1, %23 ], [ -1, %68 ], [ 1, %53 ], [ -1, %.thread49 ]
  %.031 = phi ptr [ null, %23 ], [ %.132, %68 ], [ null, %53 ], [ %38, %.thread49 ]
  %.030 = phi ptr [ null, %23 ], [ %21, %68 ], [ null, %53 ], [ %21, %.thread49 ]
  call void @EVP_PKEY_free(ptr noundef null) #11
  call void @X509_free(ptr noundef %.031) #11
  call void @sk_pop_free(ptr noundef %.030, ptr noundef nonnull @X509_free) #11
  br label %71

71:                                               ; preds = %70, %16
  %.0 = phi i32 [ %.034, %70 ], [ %17, %16 ]
  call void @llvm.lifetime.end.p0(i64 8, ptr nonnull %5) #11
  call void @llvm.lifetime.end.p0(i64 16, ptr nonnull %4) #11
  call void @llvm.lifetime.end.p0(i64 16, ptr nonnull %3) #11
  call void @llvm.lifetime.end.p0(i64 4, ptr nonnull %2) #11
  ret i32 %.0
}